target datalayout = "e-m:e-p270:32:32-p271:32:32-p272:64:64-i64:64-i128:128-f80:128-n8:16:32:64-S128"
target triple = "x86_64-pc-linux-gnu"

%struct._MdfdVec = type { i32, i32 }
%struct.iovec = type { ptr, i64 }

@InRecovery = external global i8, align 1
@.str.2 = private unnamed_addr constant [5 x i8] c"md.c\00", align 1
@.str.8 = private unnamed_addr constant [30 x i8] c"read crosses segment boundary\00", align 1
@__func__.mdreadv = private unnamed_addr constant [8 x i8] c"mdreadv\00", align 1
@.str.9 = private unnamed_addr constant [46 x i8] c"could not read blocks %u..%u in file \22%s\22: %m\00", align 1
@zero_damaged_pages = external global i8, align 1
@.str.10 = private unnamed_addr constant [70 x i8] c"could not read blocks %u..%u in file \22%s\22: read only %zu of %zu bytes\00", align 1

; Function Attrs: nounwind uwtable
define internal i32 @buffers_to_iovec(ptr noundef %0, ptr noundef %1, i32 noundef %2) #0 {
  %4 = alloca ptr, align 8
  %5 = alloca ptr, align 8
  %6 = alloca i32, align 4
  %7 = alloca ptr, align 8
  %8 = alloca i32, align 4
  %9 = alloca i32, align 4
  %10 = alloca i32, align 4
  %11 = alloca ptr, align 8
  store ptr %0, ptr %4, align 8
  store ptr %1, ptr %5, align 8
  store i32 %2, ptr %6, align 4
  call void @llvm.lifetime.start.p0(i64 8, ptr %7) #10
  call void @llvm.lifetime.start.p0(i64 4, ptr %8) #10
  call void @llvm.lifetime.start.p0(i64 4, ptr %9) #10
  store i32 0, ptr %9, align 4
  br label %12

12:                                               ; preds = %18, %3
  %13 = load i32, ptr %9, align 4
  %14 = load i32, ptr %6, align 4
  %15 = icmp slt i32 %13, %14
  br i1 %15, label %17, label %16

16:                                               ; preds = %12
  call void @llvm.lifetime.end.p0(i64 4, ptr %9) #10
  br label %21

17:                                               ; preds = %12
  br label %18

18:                                               ; preds = %17
  %19 = load i32, ptr %9, align 4
  %20 = add i32 %19, 1
  store i32 %20, ptr %9, align 4
  br label %12, !llvm.loop !15

21:                                               ; preds = %16
  %22 = load ptr, ptr %4, align 8
  %23 = getelementptr inbounds %struct.iovec, ptr %22, i64 0
  store ptr %23, ptr %7, align 8
  %24 = load ptr, ptr %5, align 8
  %25 = getelementptr inbounds ptr, ptr %24, i64 0
  %26 = load ptr, ptr %25, align 8
  %27 = load ptr, ptr %7, align 8
  %28 = getelementptr inbounds nuw %struct.iovec, ptr %27, i32 0, i32 0
  store ptr %26, ptr %28, align 8
  %29 = load ptr, ptr %7, align 8
  %30 = getelementptr inbounds nuw %struct.iovec, ptr %29, i32 0, i32 1
  store i64 8192, ptr %30, align 8
  store i32 1, ptr %8, align 4
  call void @llvm.lifetime.start.p0(i64 4, ptr %10) #10
  store i32 1, ptr %10, align 4
  br label %31

31:                                               ; preds = %67, %21
  %32 = load i32, ptr %10, align 4
  %33 = load i32, ptr %6, align 4
  %34 = icmp slt i32 %32, %33
  br i1 %34, label %36, label %35

35:                                               ; preds = %31
  call void @llvm.lifetime.end.p0(i64 4, ptr %10) #10
  br label %70

36:                                               ; preds = %31
  call void @llvm.lifetime.start.p0(i64 8, ptr %11) #10
  %37 = load ptr, ptr %5, align 8
  %38 = load i32, ptr %10, align 4
  %39 = sext i32 %38 to i64
  %40 = getelementptr inbounds ptr, ptr %37, i64 %39
  %41 = load ptr, ptr %40, align 8
  store ptr %41, ptr %11, align 8
  %42 = load ptr, ptr %7, align 8
  %43 = getelementptr inbounds nuw %struct.iovec, ptr %42, i32 0, i32 0
  %44 = load ptr, ptr %43, align 8
  %45 = load ptr, ptr %7, align 8
  %46 = getelementptr inbounds nuw %struct.iovec, ptr %45, i32 0, i32 1
  %47 = load i64, ptr %46, align 8
  %48 = getelementptr inbounds nuw i8, ptr %44, i64 %47
  %49 = load ptr, ptr %11, align 8
  %50 = icmp eq ptr %48, %49
  br i1 %50, label %51, label %56

51:                                               ; preds = %36
  %52 = load ptr, ptr %7, align 8
  %53 = getelementptr inbounds nuw %struct.iovec, ptr %52, i32 0, i32 1
  %54 = load i64, ptr %53, align 8
  %55 = add i64 %54, 8192
  store i64 %55, ptr %53, align 8
  br label %66

56:                                               ; preds = %36
  %57 = load ptr, ptr %7, align 8
  %58 = getelementptr inbounds nuw %struct.iovec, ptr %57, i32 1
  store ptr %58, ptr %7, align 8
  %59 = load ptr, ptr %11, align 8
  %60 = load ptr, ptr %7, align 8
  %61 = getelementptr inbounds nuw %struct.iovec, ptr %60, i32 0, i32 0
  store ptr %59, ptr %61, align 8
  %62 = load ptr, ptr %7, align 8
  %63 = getelementptr inbounds nuw %struct.iovec, ptr %62, i32 0, i32 1
  store i64 8192, ptr %63, align 8
  %64 = load i32, ptr %8, align 4
  %65 = add i32 %64, 1
  store i32 %65, ptr %8, align 4
  br label %66

66:                                               ; preds = %56, %51
  call void @llvm.lifetime.end.p0(i64 8, ptr %11) #10
  br label %67

67:                                               ; preds = %66
  %68 = load i32, ptr %10, align 4
  %69 = add i32 %68, 1
  store i32 %69, ptr %10, align 4
  br label %31, !llvm.loop !16

70:                                               ; preds = %35
  %71 = load i32, ptr %8, align 4
  call void @llvm.lifetime.end.p0(i64 4, ptr %8) #10
  call void @llvm.lifetime.end.p0(i64 8, ptr %7) #10
  ret i32 %71
}

; Function Attrs: nounwind uwtable
define dso_local void @mdreadv(ptr noundef %0, i32 noundef %1, i32 noundef %2, ptr noundef %3, i32 noundef %4) #0 {
  %6 = alloca ptr, align 8
  %7 = alloca i32, align 4
  %8 = alloca i32, align 4
  %9 = alloca ptr, align 8
  %10 = alloca i32, align 4
  %11 = alloca [32 x %struct.iovec], align 16
  %12 = alloca i32, align 4
  %13 = alloca i64, align 8
  %14 = alloca i32, align 4
  %15 = alloca ptr, align 8
  %16 = alloca i32, align 4
  %17 = alloca i64, align 8
  %18 = alloca i64, align 8
  %19 = alloca i32, align 4
  store ptr %0, ptr %6, align 8
  store i32 %1, ptr %7, align 4
  store i32 %2, ptr %8, align 4
  store ptr %3, ptr %9, align 8
  store i32 %4, ptr %10, align 4
  br label %20

20:                                               ; preds = %187, %5
  %21 = load i32, ptr %10, align 4
  %22 = icmp ugt i32 %21, 0
  br i1 %22, label %23, label %198

23:                                               ; preds = %20
  call void @llvm.lifetime.start.p0(i64 512, ptr %11) #10
  call void @llvm.lifetime.start.p0(i64 4, ptr %12) #10
  call void @llvm.lifetime.start.p0(i64 8, ptr %13) #10
  call void @llvm.lifetime.start.p0(i64 4, ptr %14) #10
  call void @llvm.lifetime.start.p0(i64 8, ptr %15) #10
  call void @llvm.lifetime.start.p0(i64 4, ptr %16) #10
  call void @llvm.lifetime.start.p0(i64 8, ptr %17) #10
  call void @llvm.lifetime.start.p0(i64 8, ptr %18) #10
  %24 = load ptr, ptr %6, align 8
  %25 = load i32, ptr %7, align 4
  %26 = load i32, ptr %8, align 4
  %27 = call ptr @_mdfd_getseg(ptr noundef %24, i32 noundef %25, i32 noundef %26, i1 noundef zeroext false, i32 noundef 9)
  store ptr %27, ptr %15, align 8
  %28 = load i32, ptr %8, align 4
  %29 = urem i32 %28, 131072
  %30 = zext i32 %29 to i64
  %31 = mul i64 8192, %30
  store i64 %31, ptr %13, align 8
  %32 = load i32, ptr %10, align 4
  %33 = load i32, ptr %8, align 4
  %34 = urem i32 %33, 131072
  %35 = sub i32 131072, %34
  %36 = icmp ult i32 %32, %35
  br i1 %36, label %37, label %39

37:                                               ; preds = %23
  %38 = load i32, ptr %10, align 4
  br label %43

39:                                               ; preds = %23
  %40 = load i32, ptr %8, align 4
  %41 = urem i32 %40, 131072
  %42 = sub i32 131072, %41
  br label %43

43:                                               ; preds = %39, %37
  %44 = phi i32 [ %38, %37 ], [ %42, %39 ]
  store i32 %44, ptr %16, align 4
  %45 = load i32, ptr %16, align 4
  %46 = zext i32 %45 to i64
  %47 = icmp ult i64 %46, 32
  br i1 %47, label %48, label %51

48:                                               ; preds = %43
  %49 = load i32, ptr %16, align 4
  %50 = zext i32 %49 to i64
  br label %52

51:                                               ; preds = %43
  br label %52

52:                                               ; preds = %51, %48
  %53 = phi i64 [ %50, %48 ], [ 32, %51 ]
  %54 = trunc i64 %53 to i32
  store i32 %54, ptr %16, align 4
  %55 = load i32, ptr %16, align 4
  %56 = load i32, ptr %10, align 4
  %57 = icmp ne i32 %55, %56
  br i1 %57, label %58, label %69

58:                                               ; preds = %52
  br label %59

59:                                               ; preds = %58
  br i1 true, label %60, label %62

60:                                               ; preds = %59
  %61 = call zeroext i1 @errstart_cold(i32 noundef 21, ptr noundef null) #12
  br i1 %61, label %64, label %66

62:                                               ; preds = %59
  %63 = call zeroext i1 @errstart(i32 noundef 21, ptr noundef null)
  br i1 %63, label %64, label %66

64:                                               ; preds = %62, %60
  %65 = call i32 (ptr, ...) @errmsg_internal(ptr noundef @.str.8)
  call void @errfinish(ptr noundef @.str.2, i32 noundef 844, ptr noundef @__func__.mdreadv)
  br label %66

66:                                               ; preds = %64, %62, %60
  unreachable

67:                                               ; No predecessors!
  br label %68

68:                                               ; preds = %67
  br label %69

69:                                               ; preds = %68, %52
  %70 = getelementptr inbounds [32 x %struct.iovec], ptr %11, i64 0, i64 0
  %71 = load ptr, ptr %9, align 8
  %72 = load i32, ptr %16, align 4
  %73 = call i32 @buffers_to_iovec(ptr noundef %70, ptr noundef %71, i32 noundef %72)
  store i32 %73, ptr %12, align 4
  %74 = load i32, ptr %16, align 4
  %75 = mul i32 %74, 8192
  %76 = zext i32 %75 to i64
  store i64 %76, ptr %18, align 8
  store i64 0, ptr %17, align 8
  br label %77

77:                                               ; preds = %176, %69
  br label %78

78:                                               ; preds = %77
  br label %79

79:                                               ; preds = %78
  br label %80

80:                                               ; preds = %79
  %81 = load ptr, ptr %15, align 8
  %82 = getelementptr inbounds nuw %struct._MdfdVec, ptr %81, i32 0, i32 0
  %83 = load i32, ptr %82, align 4
  %84 = getelementptr inbounds [32 x %struct.iovec], ptr %11, i64 0, i64 0
  %85 = load i32, ptr %12, align 4
  %86 = load i64, ptr %13, align 8
  %87 = call i64 @FileReadV(i32 noundef %83, ptr noundef %84, i32 noundef %85, i64 noundef %86, i32 noundef 167772177)
  %88 = trunc i64 %87 to i32
  store i32 %88, ptr %14, align 4
  br label %89

89:                                               ; preds = %80
  br label %90

90:                                               ; preds = %89
  br label %91

91:                                               ; preds = %90
  %92 = load i32, ptr %14, align 4
  %93 = icmp slt i32 %92, 0
  br i1 %93, label %94, label %115

94:                                               ; preds = %91
  br label %95

95:                                               ; preds = %94
  br i1 true, label %96, label %98

96:                                               ; preds = %95
  %97 = call zeroext i1 @errstart_cold(i32 noundef 21, ptr noundef null) #12
  br i1 %97, label %100, label %112

98:                                               ; preds = %95
  %99 = call zeroext i1 @errstart(i32 noundef 21, ptr noundef null)
  br i1 %99, label %100, label %112

100:                                              ; preds = %98, %96
  %101 = call i32 @errcode_for_file_access()
  %102 = load i32, ptr %8, align 4
  %103 = load i32, ptr %8, align 4
  %104 = load i32, ptr %16, align 4
  %105 = add i32 %103, %104
  %106 = sub i32 %105, 1
  %107 = load ptr, ptr %15, align 8
  %108 = getelementptr inbounds nuw %struct._MdfdVec, ptr %107, i32 0, i32 0
  %109 = load i32, ptr %108, align 4
  %110 = call ptr @FilePathName(i32 noundef %109)
  %111 = call i32 (ptr, ...) @errmsg(ptr noundef @.str.9, i32 noundef %102, i32 noundef %106, ptr noundef %110)
  call void @errfinish(ptr noundef @.str.2, i32 noundef 882, ptr noundef @__func__.mdreadv)
  br label %112

112:                                              ; preds = %100, %98, %96
  unreachable

113:                                              ; No predecessors!
  br label %114

114:                                              ; preds = %113
  br label %115

115:                                              ; preds = %114, %91
  %116 = load i32, ptr %14, align 4
  %117 = icmp eq i32 %116, 0
  br i1 %117, label %118, label %167

118:                                              ; preds = %115
  %119 = load i8, ptr @zero_damaged_pages, align 1, !range !4, !noundef !5
  %120 = trunc i8 %119 to i1
  br i1 %120, label %124, label %121

121:                                              ; preds = %118
  %122 = load i8, ptr @InRecovery, align 1, !range !4, !noundef !5
  %123 = trunc i8 %122 to i1
  br i1 %123, label %124, label %143

124:                                              ; preds = %121, %118
  call void @llvm.lifetime.start.p0(i64 4, ptr %19) #10
  %125 = load i64, ptr %17, align 8
  %126 = udiv i64 %125, 8192
  %127 = trunc i64 %126 to i32
  store i32 %127, ptr %19, align 4
  br label %128

128:                                              ; preds = %139, %124
  %129 = load i32, ptr %19, align 4
  %130 = load i32, ptr %16, align 4
  %131 = icmp ult i32 %129, %130
  br i1 %131, label %133, label %132

132:                                              ; preds = %128
  call void @llvm.lifetime.end.p0(i64 4, ptr %19) #10
  br label %142

133:                                              ; preds = %128
  %134 = load ptr, ptr %9, align 8
  %135 = load i32, ptr %19, align 4
  %136 = zext i32 %135 to i64
  %137 = getelementptr inbounds nuw ptr, ptr %134, i64 %136
  %138 = load ptr, ptr %137, align 8
  call void @llvm.memset.p0.i64(ptr align 1 %138, i8 0, i64 8192, i1 false)
  br label %139

139:                                              ; preds = %133
  %140 = load i32, ptr %19, align 4
  %141 = add i32 %140, 1
  store i32 %141, ptr %19, align 4
  br label %128, !llvm.loop !13

142:                                              ; preds = %132
  br label %187

143:                                              ; preds = %121
  br label %144

144:                                              ; preds = %143
  br i1 true, label %145, label %147

145:                                              ; preds = %144
  %146 = call zeroext i1 @errstart_cold(i32 noundef 21, ptr noundef null) #12
  br i1 %146, label %149, label %163

147:                                              ; preds = %144
  %148 = call zeroext i1 @errstart(i32 noundef 21, ptr noundef null)
  br i1 %148, label %149, label %163

149:                                              ; preds = %147, %145
  %150 = call i32 @errcode(i32 noundef 16779816)
  %151 = load i32, ptr %8, align 4
  %152 = load i32, ptr %8, align 4
  %153 = load i32, ptr %16, align 4
  %154 = add i32 %152, %153
  %155 = sub i32 %154, 1
  %156 = load ptr, ptr %15, align 8
  %157 = getelementptr inbounds nuw %struct._MdfdVec, ptr %156, i32 0, i32 0
  %158 = load i32, ptr %157, align 4
  %159 = call ptr @FilePathName(i32 noundef %158)
  %160 = load i64, ptr %17, align 8
  %161 = load i64, ptr %18, align 8
  %162 = call i32 (ptr, ...) @errmsg(ptr noundef @.str.10, i32 noundef %151, i32 noundef %155, ptr noundef %159, i64 noundef %160, i64 noundef %161)
  call void @errfinish(ptr noundef @.str.2, i32 noundef 910, ptr noundef @__func__.mdreadv)
  br label %163

163:                                              ; preds = %149, %147, %145
  unreachable

164:                                              ; No predecessors!
  br label %165

165:                                              ; preds = %164
  br label %166

166:                                              ; preds = %165
  br label %167

167:                                              ; preds = %166, %115
  %168 = load i32, ptr %14, align 4
  %169 = sext i32 %168 to i64
  %170 = load i64, ptr %17, align 8
  %171 = add i64 %170, %169
  store i64 %171, ptr %17, align 8
  %172 = load i64, ptr %17, align 8
  %173 = load i64, ptr %18, align 8
  %174 = icmp eq i64 %172, %173
  br i1 %174, label %175, label %176

175:                                              ; preds = %167
  br label %187

176:                                              ; preds = %167
  %177 = load i32, ptr %14, align 4
  %178 = sext i32 %177 to i64
  %179 = load i64, ptr %13, align 8
  %180 = add i64 %179, %178
  store i64 %180, ptr %13, align 8
  %181 = getelementptr inbounds [32 x %struct.iovec], ptr %11, i64 0, i64 0
  %182 = getelementptr inbounds [32 x %struct.iovec], ptr %11, i64 0, i64 0
  %183 = load i32, ptr %12, align 4
  %184 = load i32, ptr %14, align 4
  %185 = sext i32 %184 to i64
  %186 = call i32 @compute_remaining_iovec(ptr noundef %181, ptr noundef %182, i32 noundef %183, i64 noundef %185)
  store i32 %186, ptr %12, align 4
  br label %77

187:                                              ; preds = %175, %142
  %188 = load i32, ptr %16, align 4
  %189 = load i32, ptr %10, align 4
  %190 = sub i32 %189, %188
  store i32 %190, ptr %10, align 4
  %191 = load i32, ptr %16, align 4
  %192 = load ptr, ptr %9, align 8
  %193 = zext i32 %191 to i64
  %194 = getelementptr inbounds nuw ptr, ptr %192, i64 %193
  store ptr %194, ptr %9, align 8
  %195 = load i32, ptr %16, align 4
  %196 = load i32, ptr %8, align 4
  %197 = add i32 %196, %195
  store i32 %197, ptr %8, align 4
  call void @llvm.lifetime.end.p0(i64 8, ptr %18) #10
  call void @llvm.lifetime.end.p0(i64 8, ptr %17) #10
  call void @llvm.lifetime.end.p0(i64 4, ptr %16) #10
  call void @llvm.lifetime.end.p0(i64 8, ptr %15) #10
  call void @llvm.lifetime.end.p0(i64 4, ptr %14) #10
  call void @llvm.lifetime.end.p0(i64 8, ptr %13) #10
  call void @llvm.lifetime.end.p0(i64 4, ptr %12) #10
  call void @llvm.lifetime.end.p0(i64 512, ptr %11) #10
  br label %20, !llvm.loop !14

198:                                              ; preds = %20
  ret void
}