; Function Attrs: nounwind uwtable
define dso_local void @mdreadv(ptr noundef captures(none) %0, i32 noundef %1, i32 noundef %2, ptr noundef readonly captures(none) %3, i32 noundef %4) local_unnamed_addr #0 {
  %6 = alloca [32 x %struct.iovec], align 16
  %.not84 = icmp eq i32 %4, 0
  br i1 %.not84, label %._crit_edge91, label %7

7:                                                ; preds = %5
  call void @llvm.lifetime.start.p0(i64 512, ptr nonnull %6) #15
  %8 = tail call fastcc ptr @_mdfd_getseg(ptr noundef %0, i32 noundef %1, i32 noundef %2, i1 noundef zeroext false, i32 noundef 9)
  %9 = and i32 %2, 131071
  %10 = sub nuw nsw i32 131072, %9
  %11 = tail call i32 @llvm.umin.i32(i32 %4, i32 %10)
  %12 = tail call i32 @llvm.umin.i32(i32 %11, i32 32)
  %.not59 = icmp eq i32 %12, %4
  br i1 %.not59, label %16, label %13

13:                                               ; preds = %7
  %14 = tail call zeroext i1 @errstart_cold(i32 noundef 21, ptr noundef null) #17
  tail call void @llvm.assume(i1 %14)
  %15 = tail call i32 (ptr, ...) @errmsg_internal(ptr noundef nonnull @.str.8) #15
  tail call void @errfinish(ptr noundef nonnull @.str.2, i32 noundef 844, ptr noundef nonnull @__func__.mdreadv) #15
  unreachable

16:                                               ; preds = %7
  %17 = getelementptr inbounds nuw i8, ptr %6, i64 8
  %18 = shl nuw nsw i32 %9, 13
  %19 = zext nneg i32 %18 to i64
  %20 = load ptr, ptr %3, align 8
  store ptr %20, ptr %6, align 16
  store i64 8192, ptr %17, align 8
  %21 = icmp samesign ugt i32 %11, 1
  br i1 %21, label %.lr.ph.preheader.i, label %buffers_to_iovec.exit

.lr.ph.preheader.i:                               ; preds = %16
  %wide.trip.count.i = zext nneg i32 %4 to i64
  br label %.lr.ph.i

.lr.ph.i:                                         ; preds = %35, %.lr.ph.preheader.i
  %22 = phi ptr [ %20, %.lr.ph.preheader.i ], [ %36, %35 ]
  %indvars.iv.i = phi i64 [ 1, %.lr.ph.preheader.i ], [ %indvars.iv.next.i, %35 ]
  %.029.i = phi ptr [ %6, %.lr.ph.preheader.i ], [ %.1.i, %35 ]
  %.02327.i = phi i32 [ 1, %.lr.ph.preheader.i ], [ %.124.i, %35 ]
  %23 = getelementptr inbounds nuw ptr, ptr %3, i64 %indvars.iv.i
  %24 = load ptr, ptr %23, align 8
  %25 = getelementptr inbounds nuw i8, ptr %.029.i, i64 8
  %26 = load i64, ptr %25, align 8
  %27 = getelementptr inbounds nuw i8, ptr %22, i64 %26
  %28 = icmp eq ptr %27, %24
  br i1 %28, label %29, label %31

29:                                               ; preds = %.lr.ph.i
  %30 = add i64 %26, 8192
  store i64 %30, ptr %25, align 8
  br label %35

31:                                               ; preds = %.lr.ph.i
  %32 = getelementptr inbounds nuw i8, ptr %.029.i, i64 16
  store ptr %24, ptr %32, align 8
  %33 = getelementptr inbounds nuw i8, ptr %.029.i, i64 24
  store i64 8192, ptr %33, align 8
  %34 = add i32 %.02327.i, 1
  br label %35

35:                                               ; preds = %31, %29
  %36 = phi ptr [ %22, %29 ], [ %24, %31 ]
  %.124.i = phi i32 [ %.02327.i, %29 ], [ %34, %31 ]
  %.1.i = phi ptr [ %.029.i, %29 ], [ %32, %31 ]
  %indvars.iv.next.i = add nuw nsw i64 %indvars.iv.i, 1
  %exitcond.not.i = icmp eq i64 %indvars.iv.next.i, %wide.trip.count.i
  br i1 %exitcond.not.i, label %buffers_to_iovec.exit, label %.lr.ph.i, !llvm.loop !11

buffers_to_iovec.exit:                            ; preds = %35, %16
  %.023.lcssa.i = phi i32 [ 1, %16 ], [ %.124.i, %35 ]
  %37 = shl nuw nsw i32 %4, 13
  %38 = zext nneg i32 %37 to i64
  %39 = load i32, ptr %8, align 4
  %40 = call i64 @FileReadV(i32 noundef %39, ptr noundef nonnull %6, i32 noundef %.023.lcssa.i, i64 noundef %19, i32 noundef 167772177) #15
  %41 = trunc i64 %40 to i32
  %42 = icmp slt i32 %41, 0
  br i1 %42, label %buffers_to_iovec.exit._crit_edge, label %.lr.ph

buffers_to_iovec.exit._crit_edge:                 ; preds = %78, %buffers_to_iovec.exit
  %43 = call zeroext i1 @errstart_cold(i32 noundef 21, ptr noundef null) #17
  call void @llvm.assume(i1 %43)
  %44 = call i32 @errcode_for_file_access() #15
  %45 = add i32 %2, -1
  %46 = add i32 %45, %4
  %47 = load i32, ptr %8, align 4
  %48 = call ptr @FilePathName(i32 noundef %47) #15
  %49 = call i32 (ptr, ...) @errmsg(ptr noundef nonnull @.str.9, i32 noundef %2, i32 noundef %46, ptr noundef %48) #15
  call void @errfinish(ptr noundef nonnull @.str.2, i32 noundef 882, ptr noundef nonnull @__func__.mdreadv) #15
  unreachable

.lr.ph:                                           ; preds = %buffers_to_iovec.exit, %78
  %50 = phi i32 [ %83, %78 ], [ %41, %buffers_to_iovec.exit ]
  %51 = phi i64 [ %82, %78 ], [ %40, %buffers_to_iovec.exit ]
  %.05175 = phi i64 [ %76, %78 ], [ 0, %buffers_to_iovec.exit ]
  %.05474 = phi i64 [ %79, %78 ], [ %19, %buffers_to_iovec.exit ]
  %.05573 = phi i32 [ %80, %78 ], [ %.023.lcssa.i, %buffers_to_iovec.exit ]
  %52 = icmp eq i32 %50, 0
  br i1 %52, label %53, label %74

53:                                               ; preds = %.lr.ph
  %54 = load i8, ptr @zero_damaged_pages, align 1, !range !4, !noundef !5
  %55 = trunc nuw i8 %54 to i1
  br i1 %55, label %59, label %56

56:                                               ; preds = %53
  %57 = load i8, ptr @InRecovery, align 1, !range !4, !noundef !5
  %58 = trunc nuw i8 %57 to i1
  br i1 %58, label %59, label %66

59:                                               ; preds = %56, %53
  %60 = lshr i64 %.05175, 13
  %61 = trunc i64 %60 to i32
  %62 = icmp ugt i32 %4, %61
  br i1 %62, label %.lr.ph83.preheader, label %._crit_edge91.loopexit

.lr.ph83.preheader:                               ; preds = %59
  %63 = and i64 %60, 4294967295
  %wide.trip.count = zext i32 %4 to i64
  br label %.lr.ph83

.lr.ph83:                                         ; preds = %.lr.ph83.preheader, %.lr.ph83
  %indvars.iv = phi i64 [ %63, %.lr.ph83.preheader ], [ %indvars.iv.next, %.lr.ph83 ]
  %64 = getelementptr inbounds nuw ptr, ptr %3, i64 %indvars.iv
  %65 = load ptr, ptr %64, align 8
  call void @llvm.memset.p0.i64(ptr noundef nonnull align 1 dereferenceable(8192) %65, i8 0, i64 8192, i1 false)
  %indvars.iv.next = add nuw nsw i64 %indvars.iv, 1
  %exitcond.not = icmp eq i64 %indvars.iv.next, %wide.trip.count
  br i1 %exitcond.not, label %._crit_edge91.loopexit, label %.lr.ph83, !llvm.loop !12

66:                                               ; preds = %56
  %67 = call zeroext i1 @errstart_cold(i32 noundef 21, ptr noundef null) #17
  call void @llvm.assume(i1 %67)
  %68 = call i32 @errcode(i32 noundef 16779816) #15
  %69 = add i32 %2, -1
  %70 = add i32 %69, %4
  %71 = load i32, ptr %8, align 4
  %72 = call ptr @FilePathName(i32 noundef %71) #15
  %73 = call i32 (ptr, ...) @errmsg(ptr noundef nonnull @.str.10, i32 noundef %2, i32 noundef %70, ptr noundef %72, i64 noundef %.05175, i64 noundef %38) #15
  call void @errfinish(ptr noundef nonnull @.str.2, i32 noundef 910, ptr noundef nonnull @__func__.mdreadv) #15
  unreachable

74:                                               ; preds = %.lr.ph
  %75 = and i64 %51, 2147483647
  %76 = add i64 %75, %.05175
  %77 = icmp eq i64 %76, %38
  br i1 %77, label %._crit_edge91.loopexit, label %78

78:                                               ; preds = %74
  %79 = add i64 %75, %.05474
  %80 = call i32 @compute_remaining_iovec(ptr noundef nonnull %6, ptr noundef nonnull %6, i32 noundef %.05573, i64 noundef %75) #15
  %81 = load i32, ptr %8, align 4
  %82 = call i64 @FileReadV(i32 noundef %81, ptr noundef nonnull %6, i32 noundef %80, i64 noundef %79, i32 noundef 167772177) #15
  %83 = trunc i64 %82 to i32
  %84 = icmp slt i32 %83, 0
  br i1 %84, label %buffers_to_iovec.exit._crit_edge, label %.lr.ph

._crit_edge91.loopexit:                           ; preds = %74, %.lr.ph83, %59
  call void @llvm.lifetime.end.p0(i64 512, ptr nonnull %6) #15
  br label %._crit_edge91

._crit_edge91:                                    ; preds = %._crit_edge91.loopexit, %5
  ret void
}